; Function Attrs: mustprogress nofree norecurse nosync nounwind willreturn memory(argmem: readwrite) uwtable
define hidden range(i32 0, 2) i32 @CBS_get_bytes(ptr noundef captures(none) %0, ptr noundef writeonly captures(none) %1, i64 noundef %2) local_unnamed_addr #1 {
  %4 = getelementptr inbounds nuw i8, ptr %0, i64 8
  %5 = load i64, ptr %4, align 8, !tbaa !13
  %6 = icmp ult i64 %5, %2
  br i1 %6, label %cbs_get.exit.thread, label %7

7:                                                ; preds = %3
  %8 = load ptr, ptr %0, align 8, !tbaa !6
  %9 = getelementptr inbounds nuw i8, ptr %8, i64 %2
  store ptr %9, ptr %0, align 8, !tbaa !6
  %10 = sub nuw i64 %5, %2
  store i64 %10, ptr %4, align 8, !tbaa !13
  store ptr %8, ptr %1, align 8, !tbaa !6
  %11 = getelementptr inbounds nuw i8, ptr %1, i64 8
  store i64 %2, ptr %11, align 8, !tbaa !13
  br label %cbs_get.exit.thread

cbs_get.exit.thread:                              ; preds = %3, %7
  %.0 = phi i32 [ 1, %7 ], [ 0, %3 ]
  ret i32 %.0
}